; ModuleID = 'bench/c3c/original/errors.c.ll'
source_filename = "bench/c3c/original/errors.c.ll"
target datalayout = "e-m:e-p270:32:32-p271:32:32-p272:64:64-i64:64-i128:128-f80:128-n8:16:32:64-S128"
target triple = "x86_64-pc-linux-gnu"

%struct.__va_list_tag = type { i32, i32, ptr, ptr }

@stderr = external local_unnamed_addr global ptr, align 8

; Function Attrs: cold nofree nounwind uwtable
define dso_local void @evprintf(ptr noundef readonly captures(none) %0, ptr noundef %1) local_unnamed_addr #0 {
  %3 = load ptr, ptr @stderr, align 8
  %4 = tail call i32 @vfprintf(ptr noundef %3, ptr noundef %0, ptr noundef %1) #6
  ret void
}

; Function Attrs: nofree nounwind
declare noundef i32 @vfprintf(ptr noundef captures(none), ptr noundef readonly captures(none), ptr noundef) local_unnamed_addr #1

; Function Attrs: cold nofree nounwind uwtable
define dso_local void @eprintf(ptr noundef readonly captures(none) %0, ...) local_unnamed_addr #0 {
  %2 = alloca [1 x %struct.__va_list_tag], align 16
  call void @llvm.va_start.p0(ptr nonnull %2)
  %3 = load ptr, ptr @stderr, align 8
  %4 = call i32 @vfprintf(ptr noundef %3, ptr noundef %0, ptr noundef nonnull %2) #6
  call void @llvm.va_end.p0(ptr nonnull %2)
  ret void
}

; Function Attrs: mustprogress nocallback nofree nosync nounwind willreturn
declare void @llvm.va_start.p0(ptr) #2

; Function Attrs: mustprogress nocallback nofree nosync nounwind willreturn
declare void @llvm.va_end.p0(ptr) #2

; Function Attrs: cold noreturn nounwind uwtable
define dso_local void @error_exit(ptr noundef readonly captures(none) %0, ...) local_unnamed_addr #3 {
  %2 = alloca [1 x %struct.__va_list_tag], align 16
  call void @llvm.va_start.p0(ptr nonnull %2)
  %3 = load ptr, ptr @stderr, align 8
  %4 = call i32 @vfprintf(ptr noundef %3, ptr noundef %0, ptr noundef nonnull %2) #6
  %5 = load ptr, ptr @stderr, align 8
  %fputc = call i32 @fputc(i32 10, ptr %5)
  call void @llvm.va_end.p0(ptr nonnull %2)
  call void @exit_compiler(i32 noundef 1) #7
  unreachable
}

; Function Attrs: noreturn
declare void @exit_compiler(i32 noundef) local_unnamed_addr #4

; Function Attrs: nofree nounwind
declare noundef i32 @fputc(i32 noundef, ptr noundef captures(none)) local_unnamed_addr #5


!llvm.module.flags = !{!0, !1, !2, !3, !4, !5, !6}

!0 = !{i32 7, !"Dwarf Version", i32 3}
!1 = !{i32 2, !"Debug Info Version", i32 3}
!2 = !{i32 1, !"wchar_size", i32 4}
!3 = !{i32 8, !"PIC Level", i32 2}
!4 = !{i32 7, !"PIE Level", i32 2}
!5 = !{i32 7, !"uwtable", i32 2}
!6 = !{i32 7, !"frame-pointer", i32 2}
